; ModuleID = '9/1646.c'
source_filename = "9/1646.c"
target datalayout = "e-m:e-p270:32:32-p271:32:32-p272:64:64-i64:64-f80:128-n8:16:32:64-S128"
target triple = "x86_64-pc-linux-gnu"

@.str = private unnamed_addr constant [3 x i8] c"%d\00", align 1
@.str.1 = private unnamed_addr constant [3 x i8] c"%s\00", align 1
@.str.2 = private unnamed_addr constant [4 x i8] c"%s\0A\00", align 1

; Function Attrs: noinline nounwind uwtable
define dso_local i32 @main() #0 {
  %1 = alloca i32, align 4
  %2 = alloca i32, align 4
  %3 = alloca i32, align 4
  %4 = alloca i32, align 4
  %5 = alloca i32, align 4
  %6 = alloca i32, align 4
  %7 = alloca i32, align 4
  %8 = alloca [100 x i32], align 16
  %9 = alloca [100 x i32], align 16
  %10 = alloca [100 x i32], align 16
  %11 = alloca [30 x i8], align 16
  %12 = alloca [100 x [30 x i8]], align 16
  %13 = alloca [100 x [30 x i8]], align 16
  store i32 0, i32* %1, align 4
  %14 = call i32 (i8*, ...) @__isoc99_scanf(i8* getelementptr inbounds ([3 x i8], [3 x i8]* @.str, i64 0, i64 0), i32* %4)
  store i32 0, i32* %2, align 4
  store i32 0, i32* %7, align 4
  br label %15

15:                                               ; preds = %61, %0
  %16 = load i32, i32* %2, align 4
  %17 = load i32, i32* %4, align 4
  %18 = icmp slt i32 %16, %17
  br i1 %18, label %19, label %64

19:                                               ; preds = %15
  %20 = load i32, i32* %2, align 4
  %21 = sext i32 %20 to i64
  %22 = getelementptr inbounds [100 x [30 x i8]], [100 x [30 x i8]]* %12, i64 0, i64 %21
  %23 = getelementptr inbounds [30 x i8], [30 x i8]* %22, i64 0, i64 0
  %24 = call i32 (i8*, ...) @__isoc99_scanf(i8* getelementptr inbounds ([3 x i8], [3 x i8]* @.str.1, i64 0, i64 0), i8* %23)
  %25 = load i32, i32* %2, align 4
  %26 = sext i32 %25 to i64
  %27 = getelementptr inbounds [100 x i32], [100 x i32]* %8, i64 0, i64 %26
  %28 = call i32 (i8*, ...) @__isoc99_scanf(i8* getelementptr inbounds ([3 x i8], [3 x i8]* @.str, i64 0, i64 0), i32* %27)
  %29 = load i32, i32* %2, align 4
  %30 = sext i32 %29 to i64
  %31 = getelementptr inbounds [100 x i32], [100 x i32]* %8, i64 0, i64 %30
  %32 = load i32, i32* %31, align 4
  %33 = icmp sge i32 %32, 60
  br i1 %33, label %34, label %60

34:                                               ; preds = %19
  %35 = load i32, i32* %2, align 4
  %36 = sext i32 %35 to i64
  %37 = getelementptr inbounds [100 x i32], [100 x i32]* %8, i64 0, i64 %36
  %38 = load i32, i32* %37, align 4
  %39 = load i32, i32* %7, align 4
  %40 = sext i32 %39 to i64
  %41 = getelementptr inbounds [100 x i32], [100 x i32]* %9, i64 0, i64 %40
  store i32 %38, i32* %41, align 4
  %42 = load i32, i32* %7, align 4
  %43 = load i32, i32* %7, align 4
  %44 = sext i32 %43 to i64
  %45 = getelementptr inbounds [100 x i32], [100 x i32]* %10, i64 0, i64 %44
  store i32 %42, i32* %45, align 4
  %46 = load i32, i32* %7, align 4
  %47 = sext i32 %46 to i64
  %48 = getelementptr inbounds [100 x [30 x i8]], [100 x [30 x i8]]* %13, i64 0, i64 %47
  %49 = getelementptr inbounds [30 x i8], [30 x i8]* %48, i64 0, i64 0
  %50 = load i32, i32* %2, align 4
  %51 = sext i32 %50 to i64
  %52 = getelementptr inbounds [100 x [30 x i8]], [100 x [30 x i8]]* %12, i64 0, i64 %51
  %53 = getelementptr inbounds [30 x i8], [30 x i8]* %52, i64 0, i64 0
  %54 = call i8* @strcpy(i8* %49, i8* %53) #3
  %55 = load i32, i32* %2, align 4
  %56 = sext i32 %55 to i64
  %57 = getelementptr inbounds [100 x i32], [100 x i32]* %8, i64 0, i64 %56
  store i32 0, i32* %57, align 4
  %58 = load i32, i32* %7, align 4
  %59 = add nsw i32 %58, 1
  store i32 %59, i32* %7, align 4
  br label %60

60:                                               ; preds = %34, %19
  br label %61

61:                                               ; preds = %60
  %62 = load i32, i32* %2, align 4
  %63 = add nsw i32 %62, 1
  store i32 %63, i32* %2, align 4
  br label %15

64:                                               ; preds = %15
  store i32 0, i32* %2, align 4
  br label %65

65:                                               ; preds = %216, %64
  %66 = load i32, i32* %2, align 4
  %67 = load i32, i32* %7, align 4
  %68 = icmp slt i32 %66, %67
  br i1 %68, label %69, label %219

69:                                               ; preds = %65
  %70 = load i32, i32* %2, align 4
  %71 = add nsw i32 %70, 1
  store i32 %71, i32* %3, align 4
  br label %72

72:                                               ; preds = %212, %69
  %73 = load i32, i32* %3, align 4
  %74 = load i32, i32* %7, align 4
  %75 = icmp slt i32 %73, %74
  br i1 %75, label %76, label %215

76:                                               ; preds = %72
  %77 = load i32, i32* %3, align 4
  %78 = sext i32 %77 to i64
  %79 = getelementptr inbounds [100 x i32], [100 x i32]* %9, i64 0, i64 %78
  %80 = load i32, i32* %79, align 4
  %81 = load i32, i32* %2, align 4
  %82 = sext i32 %81 to i64
  %83 = getelementptr inbounds [100 x i32], [100 x i32]* %9, i64 0, i64 %82
  %84 = load i32, i32* %83, align 4
  %85 = icmp sgt i32 %80, %84
  br i1 %85, label %86, label %138

86:                                               ; preds = %76
  %87 = getelementptr inbounds [30 x i8], [30 x i8]* %11, i64 0, i64 0
  %88 = load i32, i32* %2, align 4
  %89 = sext i32 %88 to i64
  %90 = getelementptr inbounds [100 x [30 x i8]], [100 x [30 x i8]]* %13, i64 0, i64 %89
  %91 = getelementptr inbounds [30 x i8], [30 x i8]* %90, i64 0, i64 0
  %92 = call i8* @strcpy(i8* %87, i8* %91) #3
  %93 = load i32, i32* %2, align 4
  %94 = sext i32 %93 to i64
  %95 = getelementptr inbounds [100 x [30 x i8]], [100 x [30 x i8]]* %13, i64 0, i64 %94
  %96 = getelementptr inbounds [30 x i8], [30 x i8]* %95, i64 0, i64 0
  %97 = load i32, i32* %3, align 4
  %98 = sext i32 %97 to i64
  %99 = getelementptr inbounds [100 x [30 x i8]], [100 x [30 x i8]]* %13, i64 0, i64 %98
  %100 = getelementptr inbounds [30 x i8], [30 x i8]* %99, i64 0, i64 0
  %101 = call i8* @strcpy(i8* %96, i8* %100) #3
  %102 = load i32, i32* %3, align 4
  %103 = sext i32 %102 to i64
  %104 = getelementptr inbounds [100 x [30 x i8]], [100 x [30 x i8]]* %13, i64 0, i64 %103
  %105 = getelementptr inbounds [30 x i8], [30 x i8]* %104, i64 0, i64 0
  %106 = getelementptr inbounds [30 x i8], [30 x i8]* %11, i64 0, i64 0
  %107 = call i8* @strcpy(i8* %105, i8* %106) #3
  %108 = load i32, i32* %2, align 4
  %109 = sext i32 %108 to i64
  %110 = getelementptr inbounds [100 x i32], [100 x i32]* %9, i64 0, i64 %109
  %111 = load i32, i32* %110, align 4
  store i32 %111, i32* %5, align 4
  %112 = load i32, i32* %3, align 4
  %113 = sext i32 %112 to i64
  %114 = getelementptr inbounds [100 x i32], [100 x i32]* %9, i64 0, i64 %113
  %115 = load i32, i32* %114, align 4
  %116 = load i32, i32* %2, align 4
  %117 = sext i32 %116 to i64
  %118 = getelementptr inbounds [100 x i32], [100 x i32]* %9, i64 0, i64 %117
  store i32 %115, i32* %118, align 4
  %119 = load i32, i32* %5, align 4
  %120 = load i32, i32* %3, align 4
  %121 = sext i32 %120 to i64
  %122 = getelementptr inbounds [100 x i32], [100 x i32]* %9, i64 0, i64 %121
  store i32 %119, i32* %122, align 4
  %123 = load i32, i32* %2, align 4
  %124 = sext i32 %123 to i64
  %125 = getelementptr inbounds [100 x i32], [100 x i32]* %10, i64 0, i64 %124
  %126 = load i32, i32* %125, align 4
  store i32 %126, i32* %6, align 4
  %127 = load i32, i32* %3, align 4
  %128 = sext i32 %127 to i64
  %129 = getelementptr inbounds [100 x i32], [100 x i32]* %10, i64 0, i64 %128
  %130 = load i32, i32* %129, align 4
  %131 = load i32, i32* %2, align 4
  %132 = sext i32 %131 to i64
  %133 = getelementptr inbounds [100 x i32], [100 x i32]* %10, i64 0, i64 %132
  store i32 %130, i32* %133, align 4
  %134 = load i32, i32* %6, align 4
  %135 = load i32, i32* %3, align 4
  %136 = sext i32 %135 to i64
  %137 = getelementptr inbounds [100 x i32], [100 x i32]* %10, i64 0, i64 %136
  store i32 %134, i32* %137, align 4
  br label %138

138:                                              ; preds = %86, %76
  %139 = load i32, i32* %2, align 4
  %140 = sext i32 %139 to i64
  %141 = getelementptr inbounds [100 x i32], [100 x i32]* %9, i64 0, i64 %140
  %142 = load i32, i32* %141, align 4
  %143 = load i32, i32* %3, align 4
  %144 = sext i32 %143 to i64
  %145 = getelementptr inbounds [100 x i32], [100 x i32]* %9, i64 0, i64 %144
  %146 = load i32, i32* %145, align 4
  %147 = icmp eq i32 %142, %146
  br i1 %147, label %148, label %211

148:                                              ; preds = %138
  %149 = load i32, i32* %2, align 4
  %150 = sext i32 %149 to i64
  %151 = getelementptr inbounds [100 x i32], [100 x i32]* %10, i64 0, i64 %150
  %152 = load i32, i32* %151, align 4
  %153 = load i32, i32* %3, align 4
  %154 = sext i32 %153 to i64
  %155 = getelementptr inbounds [100 x i32], [100 x i32]* %10, i64 0, i64 %154
  %156 = load i32, i32* %155, align 4
  %157 = icmp sgt i32 %152, %156
  br i1 %157, label %158, label %210

158:                                              ; preds = %148
  %159 = getelementptr inbounds [30 x i8], [30 x i8]* %11, i64 0, i64 0
  %160 = load i32, i32* %2, align 4
  %161 = sext i32 %160 to i64
  %162 = getelementptr inbounds [100 x [30 x i8]], [100 x [30 x i8]]* %13, i64 0, i64 %161
  %163 = getelementptr inbounds [30 x i8], [30 x i8]* %162, i64 0, i64 0
  %164 = call i8* @strcpy(i8* %159, i8* %163) #3
  %165 = load i32, i32* %2, align 4
  %166 = sext i32 %165 to i64
  %167 = getelementptr inbounds [100 x [30 x i8]], [100 x [30 x i8]]* %13, i64 0, i64 %166
  %168 = getelementptr inbounds [30 x i8], [30 x i8]* %167, i64 0, i64 0
  %169 = load i32, i32* %3, align 4
  %170 = sext i32 %169 to i64
  %171 = getelementptr inbounds [100 x [30 x i8]], [100 x [30 x i8]]* %13, i64 0, i64 %170
  %172 = getelementptr inbounds [30 x i8], [30 x i8]* %171, i64 0, i64 0
  %173 = call i8* @strcpy(i8* %168, i8* %172) #3
  %174 = load i32, i32* %3, align 4
  %175 = sext i32 %174 to i64
  %176 = getelementptr inbounds [100 x [30 x i8]], [100 x [30 x i8]]* %13, i64 0, i64 %175
  %177 = getelementptr inbounds [30 x i8], [30 x i8]* %176, i64 0, i64 0
  %178 = getelementptr inbounds [30 x i8], [30 x i8]* %11, i64 0, i64 0
  %179 = call i8* @strcpy(i8* %177, i8* %178) #3
  %180 = load i32, i32* %2, align 4
  %181 = sext i32 %180 to i64
  %182 = getelementptr inbounds [100 x i32], [100 x i32]* %9, i64 0, i64 %181
  %183 = load i32, i32* %182, align 4
  store i32 %183, i32* %5, align 4
  %184 = load i32, i32* %3, align 4
  %185 = sext i32 %184 to i64
  %186 = getelementptr inbounds [100 x i32], [100 x i32]* %9, i64 0, i64 %185
  %187 = load i32, i32* %186, align 4
  %188 = load i32, i32* %2, align 4
  %189 = sext i32 %188 to i64
  %190 = getelementptr inbounds [100 x i32], [100 x i32]* %9, i64 0, i64 %189
  store i32 %187, i32* %190, align 4
  %191 = load i32, i32* %5, align 4
  %192 = load i32, i32* %3, align 4
  %193 = sext i32 %192 to i64
  %194 = getelementptr inbounds [100 x i32], [100 x i32]* %9, i64 0, i64 %193
  store i32 %191, i32* %194, align 4
  %195 = load i32, i32* %2, align 4
  %196 = sext i32 %195 to i64
  %197 = getelementptr inbounds [100 x i32], [100 x i32]* %10, i64 0, i64 %196
  %198 = load i32, i32* %197, align 4
  store i32 %198, i32* %6, align 4
  %199 = load i32, i32* %3, align 4
  %200 = sext i32 %199 to i64
  %201 = getelementptr inbounds [100 x i32], [100 x i32]* %10, i64 0, i64 %200
  %202 = load i32, i32* %201, align 4
  %203 = load i32, i32* %2, align 4
  %204 = sext i32 %203 to i64
  %205 = getelementptr inbounds [100 x i32], [100 x i32]* %10, i64 0, i64 %204
  store i32 %202, i32* %205, align 4
  %206 = load i32, i32* %6, align 4
  %207 = load i32, i32* %3, align 4
  %208 = sext i32 %207 to i64
  %209 = getelementptr inbounds [100 x i32], [100 x i32]* %10, i64 0, i64 %208
  store i32 %206, i32* %209, align 4
  br label %210

210:                                              ; preds = %158, %148
  br label %211

211:                                              ; preds = %210, %138
  br label %212

212:                                              ; preds = %211
  %213 = load i32, i32* %3, align 4
  %214 = add nsw i32 %213, 1
  store i32 %214, i32* %3, align 4
  br label %72

215:                                              ; preds = %72
  br label %216

216:                                              ; preds = %215
  %217 = load i32, i32* %2, align 4
  %218 = add nsw i32 %217, 1
  store i32 %218, i32* %2, align 4
  br label %65

219:                                              ; preds = %65
  store i32 0, i32* %2, align 4
  br label %220

220:                                              ; preds = %230, %219
  %221 = load i32, i32* %2, align 4
  %222 = load i32, i32* %7, align 4
  %223 = icmp slt i32 %221, %222
  br i1 %223, label %224, label %233

224:                                              ; preds = %220
  %225 = load i32, i32* %2, align 4
  %226 = sext i32 %225 to i64
  %227 = getelementptr inbounds [100 x [30 x i8]], [100 x [30 x i8]]* %13, i64 0, i64 %226
  %228 = getelementptr inbounds [30 x i8], [30 x i8]* %227, i64 0, i64 0
  %229 = call i32 (i8*, ...) @printf(i8* getelementptr inbounds ([4 x i8], [4 x i8]* @.str.2, i64 0, i64 0), i8* %228)
  br label %230

230:                                              ; preds = %224
  %231 = load i32, i32* %2, align 4
  %232 = add nsw i32 %231, 1
  store i32 %232, i32* %2, align 4
  br label %220

233:                                              ; preds = %220
  store i32 0, i32* %2, align 4
  br label %234

234:                                              ; preds = %251, %233
  %235 = load i32, i32* %2, align 4
  %236 = load i32, i32* %4, align 4
  %237 = icmp slt i32 %235, %236
  br i1 %237, label %238, label %254

238:                                              ; preds = %234
  %239 = load i32, i32* %2, align 4
  %240 = sext i32 %239 to i64
  %241 = getelementptr inbounds [100 x i32], [100 x i32]* %8, i64 0, i64 %240
  %242 = load i32, i32* %241, align 4
  %243 = icmp ne i32 %242, 0
  br i1 %243, label %244, label %250

244:                                              ; preds = %238
  %245 = load i32, i32* %2, align 4
  %246 = sext i32 %245 to i64
  %247 = getelementptr inbounds [100 x [30 x i8]], [100 x [30 x i8]]* %12, i64 0, i64 %246
  %248 = getelementptr inbounds [30 x i8], [30 x i8]* %247, i64 0, i64 0
  %249 = call i32 (i8*, ...) @printf(i8* getelementptr inbounds ([4 x i8], [4 x i8]* @.str.2, i64 0, i64 0), i8* %248)
  br label %250

250:                                              ; preds = %244, %238
  br label %251

251:                                              ; preds = %250
  %252 = load i32, i32* %2, align 4
  %253 = add nsw i32 %252, 1
  store i32 %253, i32* %2, align 4
  br label %234

254:                                              ; preds = %234
  ret i32 0
}

declare dso_local i32 @__isoc99_scanf(i8*, ...) #1

; Function Attrs: nounwind
declare dso_local i8* @strcpy(i8*, i8*) #2

declare dso_local i32 @printf(i8*, ...) #1


!llvm.module.flags = !{!0}
!llvm.ident = !{!1}

!0 = !{i32 1, !"wchar_size", i32 4}
!1 = !{!"clang version 10.0.0-4ubuntu1 "}
